target datalayout = "e-m:e-p270:32:32-p271:32:32-p272:64:64-i64:64-i128:128-f80:128-n8:16:32:64-S128"
target triple = "x86_64-pc-linux-gnu"

%struct.v3_ext_ctx = type { i32, ptr, ptr, ptr, ptr, ptr, ptr }

; Function Attrs: nounwind uwtable
define hidden ptr @ASN1_generate_nconf(ptr noundef %0, ptr noundef %1) #0 {
  %3 = alloca ptr, align 8
  %4 = alloca ptr, align 8
  %5 = alloca ptr, align 8
  %6 = alloca %struct.v3_ext_ctx, align 8
  %7 = alloca i32, align 4
  store ptr %0, ptr %4, align 8, !tbaa !6
  store ptr %1, ptr %5, align 8, !tbaa !11
  call void @llvm.lifetime.start.p0(i64 56, ptr %6) #7
  %8 = load ptr, ptr %5, align 8, !tbaa !11
  %9 = icmp ne ptr %8, null
  br i1 %9, label %13, label %10

10:                                               ; preds = %2
  %11 = load ptr, ptr %4, align 8, !tbaa !6
  %12 = call ptr @ASN1_generate_v3(ptr noundef %11, ptr noundef null)
  store ptr %12, ptr %3, align 8
  store i32 1, ptr %7, align 4
  br label %17

13:                                               ; preds = %2
  %14 = load ptr, ptr %5, align 8, !tbaa !11
  call void @X509V3_set_nconf(ptr noundef %6, ptr noundef %14)
  %15 = load ptr, ptr %4, align 8, !tbaa !6
  %16 = call ptr @ASN1_generate_v3(ptr noundef %15, ptr noundef %6)
  store ptr %16, ptr %3, align 8
  store i32 1, ptr %7, align 4
  br label %17

17:                                               ; preds = %13, %10
  call void @llvm.lifetime.end.p0(i64 56, ptr %6) #7
  %18 = load ptr, ptr %3, align 8
  ret ptr %18
}