; Function Attrs: nounwind uwtable
define hidden ptr @ASN1_generate_nconf(ptr noundef %0, ptr noundef %1) local_unnamed_addr #0 {
  %3 = alloca %struct.v3_ext_ctx, align 8
  call void @llvm.lifetime.start.p0(i64 56, ptr nonnull %3) #9
  %.not = icmp eq ptr %1, null
  br i1 %.not, label %4, label %6

4:                                                ; preds = %2
  %5 = tail call ptr @ASN1_generate_v3(ptr noundef %0, ptr noundef null)
  br label %8

6:                                                ; preds = %2
  call void @X509V3_set_nconf(ptr noundef nonnull %3, ptr noundef nonnull %1) #9
  %7 = call ptr @ASN1_generate_v3(ptr noundef %0, ptr noundef nonnull %3)
  br label %8

8:                                                ; preds = %6, %4
  %.0 = phi ptr [ %7, %6 ], [ %5, %4 ]
  call void @llvm.lifetime.end.p0(i64 56, ptr nonnull %3) #9
  ret ptr %.0
}